target datalayout = "e-m:e-p270:32:32-p271:32:32-p272:64:64-i64:64-i128:128-f80:128-n8:16:32:64-S128"
target triple = "x86_64-pc-linux-gnu"

%struct.AVFilterContext = type { ptr, ptr, ptr, ptr, ptr, i32, ptr, ptr, i32, ptr, ptr, i32, i32, ptr, ptr, ptr, ptr, i32, ptr, i32, i32 }
%struct.AverageBlurContext = type { ptr, i32, i32, i32, i32, i32, i32, [4 x i32], [4 x i32], ptr, [16777216 x i16], i32, [2 x ptr] }

; Function Attrs: nounwind uwtable
define internal void @build_lut(ptr noundef %0, i32 noundef %1) #1 {
  %3 = alloca ptr, align 8
  %4 = alloca i32, align 4
  %5 = alloca ptr, align 8
  %6 = alloca i32, align 4
  %7 = alloca i32, align 4
  %8 = alloca i32, align 4
  %9 = alloca i32, align 4
  %10 = alloca i32, align 4
  store ptr %0, ptr %3, align 8, !tbaa !4
  store i32 %1, ptr %4, align 4, !tbaa !25
  call void @llvm.lifetime.start.p0(i64 8, ptr %5) #5
  %11 = load ptr, ptr %3, align 8, !tbaa !4
  %12 = getelementptr inbounds nuw %struct.AVFilterContext, ptr %11, i32 0, i32 9
  %13 = load ptr, ptr %12, align 8, !tbaa !9
  store ptr %13, ptr %5, align 8, !tbaa !22
  call void @llvm.lifetime.start.p0(i64 4, ptr %6) #5
  %14 = load ptr, ptr %5, align 8, !tbaa !22
  %15 = getelementptr inbounds nuw %struct.AverageBlurContext, ptr %14, i32 0, i32 2
  %16 = load i32, ptr %15, align 4, !tbaa !28
  %17 = mul nsw i32 2, %16
  %18 = add nsw i32 %17, 1
  %19 = load ptr, ptr %5, align 8, !tbaa !22
  %20 = getelementptr inbounds nuw %struct.AverageBlurContext, ptr %19, i32 0, i32 1
  %21 = load i32, ptr %20, align 8, !tbaa !29
  %22 = mul nsw i32 2, %21
  %23 = add nsw i32 %22, 1
  %24 = mul nsw i32 %18, %23
  store i32 %24, ptr %6, align 4, !tbaa !25
  %25 = load i32, ptr %6, align 4, !tbaa !25
  %26 = load ptr, ptr %5, align 8, !tbaa !22
  %27 = getelementptr inbounds nuw %struct.AverageBlurContext, ptr %26, i32 0, i32 6
  store i32 %25, ptr %27, align 4, !tbaa !26
  %28 = load i32, ptr %4, align 4, !tbaa !25
  %29 = load i32, ptr %6, align 4, !tbaa !25
  %30 = mul nsw i32 %28, %29
  %31 = sext i32 %30 to i64
  %32 = icmp uge i64 %31, 16777216
  br i1 %32, label %33, label %34

33:                                               ; preds = %2
  store i32 1, ptr %7, align 4
  br label %63

34:                                               ; preds = %2
  call void @llvm.lifetime.start.p0(i64 4, ptr %8) #5
  store i32 0, ptr %8, align 4, !tbaa !25
  call void @llvm.lifetime.start.p0(i64 4, ptr %9) #5
  store i32 0, ptr %9, align 4, !tbaa !25
  call void @llvm.lifetime.start.p0(i64 4, ptr %10) #5
  store i32 0, ptr %10, align 4, !tbaa !25
  br label %35

35:                                               ; preds = %57, %34
  %36 = load i32, ptr %8, align 4, !tbaa !25
  %37 = load i32, ptr %4, align 4, !tbaa !25
  %38 = load i32, ptr %6, align 4, !tbaa !25
  %39 = mul nsw i32 %37, %38
  %40 = icmp slt i32 %36, %39
  br i1 %40, label %42, label %41

41:                                               ; preds = %35
  store i32 2, ptr %7, align 4
  call void @llvm.lifetime.end.p0(i64 4, ptr %10) #5
  call void @llvm.lifetime.end.p0(i64 4, ptr %9) #5
  call void @llvm.lifetime.end.p0(i64 4, ptr %8) #5
  br label %62

42:                                               ; preds = %35
  %43 = load i32, ptr %9, align 4, !tbaa !25
  %44 = load i32, ptr %6, align 4, !tbaa !25
  %45 = icmp eq i32 %43, %44
  br i1 %45, label %46, label %49

46:                                               ; preds = %42
  %47 = load i32, ptr %10, align 4, !tbaa !25
  %48 = add nsw i32 %47, 1
  store i32 %48, ptr %10, align 4, !tbaa !25
  store i32 0, ptr %9, align 4, !tbaa !25
  br label %49

49:                                               ; preds = %46, %42
  %50 = load i32, ptr %10, align 4, !tbaa !25
  %51 = trunc i32 %50 to i16
  %52 = load ptr, ptr %5, align 8, !tbaa !22
  %53 = getelementptr inbounds nuw %struct.AverageBlurContext, ptr %52, i32 0, i32 10
  %54 = load i32, ptr %8, align 4, !tbaa !25
  %55 = sext i32 %54 to i64
  %56 = getelementptr inbounds [16777216 x i16], ptr %53, i64 0, i64 %55
  store i16 %51, ptr %56, align 2, !tbaa !83
  br label %57

57:                                               ; preds = %49
  %58 = load i32, ptr %8, align 4, !tbaa !25
  %59 = add nsw i32 %58, 1
  store i32 %59, ptr %8, align 4, !tbaa !25
  %60 = load i32, ptr %9, align 4, !tbaa !25
  %61 = add nsw i32 %60, 1
  store i32 %61, ptr %9, align 4, !tbaa !25
  br label %35, !llvm.loop !137

62:                                               ; preds = %41
  store i32 0, ptr %7, align 4
  br label %63

63:                                               ; preds = %62, %33
  call void @llvm.lifetime.end.p0(i64 4, ptr %6) #5
  call void @llvm.lifetime.end.p0(i64 8, ptr %5) #5
  %64 = load i32, ptr %7, align 4
  switch i32 %64, label %66 [
    i32 0, label %65
    i32 1, label %65
  ]

65:                                               ; preds = %63, %63
  ret void

66:                                               ; preds = %63
  unreachable
}

; Function Attrs: nounwind uwtable
define internal i32 @process_command(ptr noundef %0, ptr noundef %1, ptr noundef %2, ptr noundef %3, i32 noundef %4, i32 noundef %5) #1 {
  %7 = alloca i32, align 4
  %8 = alloca ptr, align 8
  %9 = alloca ptr, align 8
  %10 = alloca ptr, align 8
  %11 = alloca ptr, align 8
  %12 = alloca i32, align 4
  %13 = alloca i32, align 4
  %14 = alloca ptr, align 8
  %15 = alloca i32, align 4
  %16 = alloca i32, align 4
  %17 = alloca i32, align 4
  store ptr %0, ptr %8, align 8, !tbaa !4
  store ptr %1, ptr %9, align 8, !tbaa !24
  store ptr %2, ptr %10, align 8, !tbaa !24
  store ptr %3, ptr %11, align 8, !tbaa !24
  store i32 %4, ptr %12, align 4, !tbaa !25
  store i32 %5, ptr %13, align 4, !tbaa !25
  call void @llvm.lifetime.start.p0(i64 8, ptr %14) #5
  %18 = load ptr, ptr %8, align 8, !tbaa !4
  %19 = getelementptr inbounds nuw %struct.AVFilterContext, ptr %18, i32 0, i32 9
  %20 = load ptr, ptr %19, align 8, !tbaa !9
  store ptr %20, ptr %14, align 8, !tbaa !22
  call void @llvm.lifetime.start.p0(i64 4, ptr %15) #5
  %21 = load ptr, ptr %14, align 8, !tbaa !22
  %22 = getelementptr inbounds nuw %struct.AverageBlurContext, ptr %21, i32 0, i32 6
  %23 = load i32, ptr %22, align 4, !tbaa !26
  store i32 %23, ptr %15, align 4, !tbaa !25
  call void @llvm.lifetime.start.p0(i64 4, ptr %16) #5
  %24 = load ptr, ptr %8, align 8, !tbaa !4
  %25 = load ptr, ptr %9, align 8, !tbaa !24
  %26 = load ptr, ptr %10, align 8, !tbaa !24
  %27 = load ptr, ptr %11, align 8, !tbaa !24
  %28 = load i32, ptr %12, align 4, !tbaa !25
  %29 = load i32, ptr %13, align 4, !tbaa !25
  %30 = call i32 @ff_filter_process_command(ptr noundef %24, ptr noundef %25, ptr noundef %26, ptr noundef %27, i32 noundef %28, i32 noundef %29)
  store i32 %30, ptr %16, align 4, !tbaa !25
  %31 = load i32, ptr %16, align 4, !tbaa !25
  %32 = icmp slt i32 %31, 0
  br i1 %32, label %33, label %35

33:                                               ; preds = %6
  %34 = load i32, ptr %16, align 4, !tbaa !25
  store i32 %34, ptr %7, align 4
  store i32 1, ptr %17, align 4
  br label %112

35:                                               ; preds = %6
  %36 = load ptr, ptr %14, align 8, !tbaa !22
  %37 = getelementptr inbounds nuw %struct.AverageBlurContext, ptr %36, i32 0, i32 2
  %38 = load i32, ptr %37, align 4, !tbaa !28
  %39 = icmp sle i32 %38, 0
  br i1 %39, label %40, label %46

40:                                               ; preds = %35
  %41 = load ptr, ptr %14, align 8, !tbaa !22
  %42 = getelementptr inbounds nuw %struct.AverageBlurContext, ptr %41, i32 0, i32 1
  %43 = load i32, ptr %42, align 8, !tbaa !29
  %44 = load ptr, ptr %14, align 8, !tbaa !22
  %45 = getelementptr inbounds nuw %struct.AverageBlurContext, ptr %44, i32 0, i32 2
  store i32 %43, ptr %45, align 4, !tbaa !28
  br label %46

46:                                               ; preds = %40, %35
  %47 = load ptr, ptr %14, align 8, !tbaa !22
  %48 = getelementptr inbounds nuw %struct.AverageBlurContext, ptr %47, i32 0, i32 7
  %49 = getelementptr inbounds [4 x i32], ptr %48, i64 0, i64 1
  %50 = load i32, ptr %49, align 4, !tbaa !25
  %51 = sdiv i32 %50, 2
  %52 = load ptr, ptr %14, align 8, !tbaa !22
  %53 = getelementptr inbounds nuw %struct.AverageBlurContext, ptr %52, i32 0, i32 1
  %54 = load i32, ptr %53, align 8, !tbaa !29
  %55 = icmp sgt i32 %51, %54
  br i1 %55, label %56, label %60

56:                                               ; preds = %46
  %57 = load ptr, ptr %14, align 8, !tbaa !22
  %58 = getelementptr inbounds nuw %struct.AverageBlurContext, ptr %57, i32 0, i32 1
  %59 = load i32, ptr %58, align 8, !tbaa !29
  br label %66

60:                                               ; preds = %46
  %61 = load ptr, ptr %14, align 8, !tbaa !22
  %62 = getelementptr inbounds nuw %struct.AverageBlurContext, ptr %61, i32 0, i32 7
  %63 = getelementptr inbounds [4 x i32], ptr %62, i64 0, i64 1
  %64 = load i32, ptr %63, align 4, !tbaa !25
  %65 = sdiv i32 %64, 2
  br label %66

66:                                               ; preds = %60, %56
  %67 = phi i32 [ %59, %56 ], [ %65, %60 ]
  %68 = load ptr, ptr %14, align 8, !tbaa !22
  %69 = getelementptr inbounds nuw %struct.AverageBlurContext, ptr %68, i32 0, i32 1
  store i32 %67, ptr %69, align 8, !tbaa !29
  %70 = load ptr, ptr %14, align 8, !tbaa !22
  %71 = getelementptr inbounds nuw %struct.AverageBlurContext, ptr %70, i32 0, i32 8
  %72 = getelementptr inbounds [4 x i32], ptr %71, i64 0, i64 1
  %73 = load i32, ptr %72, align 4, !tbaa !25
  %74 = sdiv i32 %73, 2
  %75 = load ptr, ptr %14, align 8, !tbaa !22
  %76 = getelementptr inbounds nuw %struct.AverageBlurContext, ptr %75, i32 0, i32 2
  %77 = load i32, ptr %76, align 4, !tbaa !28
  %78 = icmp sgt i32 %74, %77
  br i1 %78, label %79, label %83

79:                                               ; preds = %66
  %80 = load ptr, ptr %14, align 8, !tbaa !22
  %81 = getelementptr inbounds nuw %struct.AverageBlurContext, ptr %80, i32 0, i32 2
  %82 = load i32, ptr %81, align 4, !tbaa !28
  br label %89

83:                                               ; preds = %66
  %84 = load ptr, ptr %14, align 8, !tbaa !22
  %85 = getelementptr inbounds nuw %struct.AverageBlurContext, ptr %84, i32 0, i32 8
  %86 = getelementptr inbounds [4 x i32], ptr %85, i64 0, i64 1
  %87 = load i32, ptr %86, align 4, !tbaa !25
  %88 = sdiv i32 %87, 2
  br label %89

89:                                               ; preds = %83, %79
  %90 = phi i32 [ %82, %79 ], [ %88, %83 ]
  %91 = load ptr, ptr %14, align 8, !tbaa !22
  %92 = getelementptr inbounds nuw %struct.AverageBlurContext, ptr %91, i32 0, i32 2
  store i32 %90, ptr %92, align 4, !tbaa !28
  %93 = load i32, ptr %15, align 4, !tbaa !25
  %94 = load ptr, ptr %14, align 8, !tbaa !22
  %95 = getelementptr inbounds nuw %struct.AverageBlurContext, ptr %94, i32 0, i32 2
  %96 = load i32, ptr %95, align 4, !tbaa !28
  %97 = mul nsw i32 2, %96
  %98 = add nsw i32 %97, 1
  %99 = load ptr, ptr %14, align 8, !tbaa !22
  %100 = getelementptr inbounds nuw %struct.AverageBlurContext, ptr %99, i32 0, i32 1
  %101 = load i32, ptr %100, align 8, !tbaa !29
  %102 = mul nsw i32 2, %101
  %103 = add nsw i32 %102, 1
  %104 = mul nsw i32 %98, %103
  %105 = icmp ne i32 %93, %104
  br i1 %105, label %106, label %111

106:                                              ; preds = %89
  %107 = load ptr, ptr %8, align 8, !tbaa !4
  %108 = load ptr, ptr %14, align 8, !tbaa !22
  %109 = getelementptr inbounds nuw %struct.AverageBlurContext, ptr %108, i32 0, i32 5
  %110 = load i32, ptr %109, align 8, !tbaa !30
  call void @build_lut(ptr noundef %107, i32 noundef %110)
  br label %111

111:                                              ; preds = %106, %89
  store i32 0, ptr %7, align 4
  store i32 1, ptr %17, align 4
  br label %112

112:                                              ; preds = %111, %33
  call void @llvm.lifetime.end.p0(i64 4, ptr %16) #5
  call void @llvm.lifetime.end.p0(i64 4, ptr %15) #5
  call void @llvm.lifetime.end.p0(i64 8, ptr %14) #5
  %113 = load i32, ptr %7, align 4
  ret i32 %113
}