; Function Attrs: nounwind uwtable
define internal range(i32 -2147483648, 1) i32 @process_command(ptr noundef %0, ptr noundef %1, ptr noundef %2, ptr noundef %3, i32 noundef %4, i32 noundef %5) #1 {
  %7 = getelementptr inbounds nuw i8, ptr %0, i64 72
  %8 = load ptr, ptr %7, align 8, !tbaa !4
  %9 = getelementptr inbounds nuw i8, ptr %8, i64 28
  %10 = load i32, ptr %9, align 4, !tbaa !20
  %11 = tail call i32 @ff_filter_process_command(ptr noundef %0, ptr noundef %1, ptr noundef %2, ptr noundef %3, i32 noundef %4, i32 noundef %5) #6
  %12 = icmp slt i32 %11, 0
  br i1 %12, label %build_lut.exit, label %13

13:                                               ; preds = %6
  %14 = getelementptr inbounds nuw i8, ptr %8, i64 12
  %15 = load i32, ptr %14, align 4, !tbaa !22
  %16 = icmp slt i32 %15, 1
  %17 = getelementptr inbounds nuw i8, ptr %8, i64 8
  %18 = load i32, ptr %17, align 8, !tbaa !23
  %.33 = select i1 %16, i32 %18, i32 %15
  %19 = getelementptr inbounds nuw i8, ptr %8, i64 36
  %20 = load i32, ptr %19, align 4, !tbaa !24
  %21 = sdiv i32 %20, 2
  %22 = getelementptr inbounds nuw i8, ptr %8, i64 8
  %. = tail call i32 @llvm.smin.i32(i32 %21, i32 %18)
  store i32 %., ptr %22, align 8, !tbaa !23
  %23 = getelementptr inbounds nuw i8, ptr %8, i64 52
  %24 = load i32, ptr %23, align 4, !tbaa !24
  %25 = sdiv i32 %24, 2
  %26 = tail call i32 @llvm.smin.i32(i32 %25, i32 %.33)
  store i32 %26, ptr %14, align 4, !tbaa !22
  %27 = shl nsw i32 %26, 1
  %28 = or disjoint i32 %27, 1
  %29 = shl nsw i32 %., 1
  %30 = or disjoint i32 %29, 1
  %31 = mul nsw i32 %28, %30
  %.not = icmp eq i32 %10, %31
  br i1 %.not, label %build_lut.exit, label %32

32:                                               ; preds = %13
  %33 = getelementptr inbounds nuw i8, ptr %8, i64 24
  %34 = load i32, ptr %33, align 8, !tbaa !25
  %.val = load ptr, ptr %7, align 8, !tbaa !4
  %35 = getelementptr inbounds nuw i8, ptr %.val, i64 12
  %36 = load i32, ptr %35, align 4, !tbaa !22
  %37 = shl nsw i32 %36, 1
  %38 = or disjoint i32 %37, 1
  %39 = getelementptr inbounds nuw i8, ptr %.val, i64 8
  %40 = load i32, ptr %39, align 8, !tbaa !23
  %41 = shl nsw i32 %40, 1
  %42 = or disjoint i32 %41, 1
  %43 = mul nsw i32 %42, %38
  %44 = getelementptr inbounds nuw i8, ptr %.val, i64 28
  store i32 %43, ptr %44, align 4, !tbaa !20
  %45 = mul nsw i32 %43, %34
  %46 = add i32 %45, -1
  %or.cond.i = icmp ult i32 %46, 16777215
  br i1 %or.cond.i, label %.lr.ph.i, label %build_lut.exit

.lr.ph.i:                                         ; preds = %32
  %47 = getelementptr inbounds nuw i8, ptr %.val, i64 72
  %wide.trip.count.i = zext nneg i32 %45 to i64
  br label %48

48:                                               ; preds = %48, %.lr.ph.i
  %indvars.iv.i = phi i64 [ 0, %.lr.ph.i ], [ %indvars.iv.next.i, %48 ]
  %.03.i = phi i16 [ 0, %.lr.ph.i ], [ %spec.select20.i, %48 ]
  %.0172.i = phi i32 [ 0, %.lr.ph.i ], [ %53, %48 ]
  %49 = icmp eq i32 %.0172.i, %43
  %50 = zext i1 %49 to i16
  %spec.select20.i = add i16 %.03.i, %50
  %51 = getelementptr inbounds nuw [16777216 x i16], ptr %47, i64 0, i64 %indvars.iv.i
  store i16 %spec.select20.i, ptr %51, align 2, !tbaa !26
  %indvars.iv.next.i = add nuw nsw i64 %indvars.iv.i, 1
  %52 = add nsw i32 %.0172.i, 1
  %53 = select i1 %49, i32 1, i32 %52
  %exitcond.not.i = icmp eq i64 %indvars.iv.next.i, %wide.trip.count.i
  br i1 %exitcond.not.i, label %build_lut.exit, label %48, !llvm.loop !28

build_lut.exit:                                   ; preds = %48, %32, %13, %6
  %.0 = phi i32 [ %11, %6 ], [ 0, %13 ], [ 0, %32 ], [ 0, %48 ]
  ret i32 %.0
}